target datalayout = "e-m:e-p270:32:32-p271:32:32-p272:64:64-i64:64-i128:128-f80:128-n8:16:32:64-S128"
target triple = "x86_64-pc-linux-gnu"

%struct.AVFilterPad = type { ptr, i32, i32, %union.anon, ptr, ptr, ptr }
%union.anon = type { ptr }
%struct.AVFilterContext = type { ptr, ptr, ptr, ptr, ptr, i32, ptr, ptr, i32, ptr, ptr, i32, i32, ptr, ptr, ptr, ptr, i32, ptr, i32, i32 }
%struct.StackVAAPIContext = type { %struct.StackBaseContext, ptr }
%struct.StackBaseContext = type { %struct.VAAPIVPPContext, %struct.FFFrameSync, i32, [4 x i8], i32, ptr, i32, i32, i32, i32, i32, i32, ptr, ptr }
%struct.VAAPIVPPContext = type { ptr, ptr, ptr, i32, i32, i32, ptr, ptr, %struct._VARectangle, i32, i32, i32, [10 x i32], i32, i32, ptr, ptr }
%struct._VARectangle = type { i16, i16, i16, i16 }
%struct.FFFrameSync = type { ptr, ptr, i32, %struct.AVRational, i64, ptr, ptr, i32, i32, i8, i8, ptr, i32, i32, i32, i32 }
%struct.AVRational = type { i32, i32 }
%struct.AVFilter = type { ptr, ptr, ptr, ptr, ptr, i32 }

@.str = private unnamed_addr constant [13 x i8] c"hstack_vaapi\00", align 1
@.str.2 = private unnamed_addr constant [13 x i8] c"vstack_vaapi\00", align 1
@.str.4 = private unnamed_addr constant [13 x i8] c"xstack_vaapi\00", align 1
@.str.27 = private unnamed_addr constant [30 x i8] c"Assertion %s failed at %s:%d\0A\00", align 1
@.str.28 = private unnamed_addr constant [49 x i8] c"strcmp(avctx->filter->name, \22xstack_vaapi\22) == 0\00", align 1
@.str.29 = private unnamed_addr constant [29 x i8] c"libavfilter/stack_internal.c\00", align 1
@.str.30 = private unnamed_addr constant [59 x i8] c"Both layout and grid were specified. Only one is allowed.\0A\00", align 1
@.str.31 = private unnamed_addr constant [30 x i8] c"No layout or grid specified.\0A\00", align 1
@.str.32 = private unnamed_addr constant [5 x i8] c"none\00", align 1
@.str.33 = private unnamed_addr constant [8 x i8] c"input%d\00", align 1

; Function Attrs: nounwind uwtable
define internal i32 @stack_init(ptr noundef %0) #0 {
  %2 = alloca i32, align 4
  %3 = alloca ptr, align 8
  %4 = alloca ptr, align 8
  %5 = alloca i32, align 4
  %6 = alloca i32, align 4
  %7 = alloca i32, align 4
  %8 = alloca i32, align 4
  %9 = alloca %struct.AVFilterPad, align 8
  store ptr %0, ptr %3, align 8, !tbaa !4
  call void @llvm.lifetime.start.p0(i64 8, ptr %4) #11
  %10 = load ptr, ptr %3, align 8, !tbaa !4
  %11 = getelementptr inbounds nuw %struct.AVFilterContext, ptr %10, i32 0, i32 9
  %12 = load ptr, ptr %11, align 8, !tbaa !9
  store ptr %12, ptr %4, align 8, !tbaa !43
  call void @llvm.lifetime.start.p0(i64 4, ptr %5) #11
  %13 = load ptr, ptr %3, align 8, !tbaa !4
  %14 = getelementptr inbounds nuw %struct.AVFilterContext, ptr %13, i32 0, i32 1
  %15 = load ptr, ptr %14, align 8, !tbaa !152
  %16 = getelementptr inbounds nuw %struct.AVFilter, ptr %15, i32 0, i32 0
  %17 = load ptr, ptr %16, align 8, !tbaa !153
  %18 = call i32 @strcmp(ptr noundef %17, ptr noundef @.str) #14
  %19 = icmp ne i32 %18, 0
  br i1 %19, label %23, label %20

20:                                               ; preds = %1
  %21 = load ptr, ptr %4, align 8, !tbaa !43
  %22 = getelementptr inbounds nuw %struct.StackBaseContext, ptr %21, i32 0, i32 2
  store i32 0, ptr %22, align 8, !tbaa !86
  br label %131

23:                                               ; preds = %1
  %24 = load ptr, ptr %3, align 8, !tbaa !4
  %25 = getelementptr inbounds nuw %struct.AVFilterContext, ptr %24, i32 0, i32 1
  %26 = load ptr, ptr %25, align 8, !tbaa !152
  %27 = getelementptr inbounds nuw %struct.AVFilter, ptr %26, i32 0, i32 0
  %28 = load ptr, ptr %27, align 8, !tbaa !153
  %29 = call i32 @strcmp(ptr noundef %28, ptr noundef @.str.2) #14
  %30 = icmp ne i32 %29, 0
  br i1 %30, label %34, label %31

31:                                               ; preds = %23
  %32 = load ptr, ptr %4, align 8, !tbaa !43
  %33 = getelementptr inbounds nuw %struct.StackBaseContext, ptr %32, i32 0, i32 2
  store i32 1, ptr %33, align 8, !tbaa !86
  br label %130

34:                                               ; preds = %23
  call void @llvm.lifetime.start.p0(i64 4, ptr %6) #11
  br label %35

35:                                               ; preds = %34
  %36 = load ptr, ptr %3, align 8, !tbaa !4
  %37 = getelementptr inbounds nuw %struct.AVFilterContext, ptr %36, i32 0, i32 1
  %38 = load ptr, ptr %37, align 8, !tbaa !152
  %39 = getelementptr inbounds nuw %struct.AVFilter, ptr %38, i32 0, i32 0
  %40 = load ptr, ptr %39, align 8, !tbaa !153
  %41 = call i32 @strcmp(ptr noundef %40, ptr noundef @.str.4) #14
  %42 = icmp eq i32 %41, 0
  br i1 %42, label %44, label %43

43:                                               ; preds = %35
  call void (ptr, i32, ptr, ...) @av_log(ptr noundef null, i32 noundef 0, ptr noundef @.str.27, ptr noundef @.str.28, ptr noundef @.str.29, i32 noundef 237)
  call void @abort() #15
  unreachable

44:                                               ; preds = %35
  br label %45

45:                                               ; preds = %44
  br label %46

46:                                               ; preds = %45
  %47 = load ptr, ptr %4, align 8, !tbaa !43
  %48 = getelementptr inbounds nuw %struct.StackBaseContext, ptr %47, i32 0, i32 2
  store i32 2, ptr %48, align 8, !tbaa !86
  %49 = load ptr, ptr %4, align 8, !tbaa !43
  %50 = getelementptr inbounds nuw %struct.StackBaseContext, ptr %49, i32 0, i32 11
  %51 = load i32, ptr %50, align 4, !tbaa !94
  %52 = icmp ne i32 %51, 0
  br i1 %52, label %53, label %58

53:                                               ; preds = %46
  %54 = load ptr, ptr %4, align 8, !tbaa !43
  %55 = getelementptr inbounds nuw %struct.StackBaseContext, ptr %54, i32 0, i32 10
  %56 = load i32, ptr %55, align 8, !tbaa !95
  %57 = icmp ne i32 %56, 0
  br label %58

58:                                               ; preds = %53, %46
  %59 = phi i1 [ false, %46 ], [ %57, %53 ]
  %60 = zext i1 %59 to i32
  store i32 %60, ptr %6, align 4, !tbaa !26
  %61 = load ptr, ptr %4, align 8, !tbaa !43
  %62 = getelementptr inbounds nuw %struct.StackBaseContext, ptr %61, i32 0, i32 12
  %63 = load ptr, ptr %62, align 8, !tbaa !98
  %64 = icmp ne ptr %63, null
  br i1 %64, label %65, label %70

65:                                               ; preds = %58
  %66 = load i32, ptr %6, align 4, !tbaa !26
  %67 = icmp ne i32 %66, 0
  br i1 %67, label %68, label %70

68:                                               ; preds = %65
  %69 = load ptr, ptr %3, align 8, !tbaa !4
  call void (ptr, i32, ptr, ...) @av_log(ptr noundef %69, i32 noundef 16, ptr noundef @.str.30)
  store i32 -22, ptr %2, align 4
  store i32 1, ptr %7, align 4
  br label %127

70:                                               ; preds = %65, %58
  %71 = load ptr, ptr %4, align 8, !tbaa !43
  %72 = getelementptr inbounds nuw %struct.StackBaseContext, ptr %71, i32 0, i32 12
  %73 = load ptr, ptr %72, align 8, !tbaa !98
  %74 = icmp ne ptr %73, null
  br i1 %74, label %91, label %75

75:                                               ; preds = %70
  %76 = load i32, ptr %6, align 4, !tbaa !26
  %77 = icmp ne i32 %76, 0
  br i1 %77, label %91, label %78

78:                                               ; preds = %75
  %79 = load ptr, ptr %4, align 8, !tbaa !43
  %80 = getelementptr inbounds nuw %struct.StackBaseContext, ptr %79, i32 0, i32 6
  %81 = load i32, ptr %80, align 8, !tbaa !88
  %82 = icmp eq i32 %81, 2
  br i1 %82, label %83, label %88

83:                                               ; preds = %78
  %84 = load ptr, ptr %4, align 8, !tbaa !43
  %85 = getelementptr inbounds nuw %struct.StackBaseContext, ptr %84, i32 0, i32 11
  store i32 1, ptr %85, align 4, !tbaa !94
  %86 = load ptr, ptr %4, align 8, !tbaa !43
  %87 = getelementptr inbounds nuw %struct.StackBaseContext, ptr %86, i32 0, i32 10
  store i32 2, ptr %87, align 8, !tbaa !95
  store i32 1, ptr %6, align 4, !tbaa !26
  br label %90

88:                                               ; preds = %78
  %89 = load ptr, ptr %3, align 8, !tbaa !4
  call void (ptr, i32, ptr, ...) @av_log(ptr noundef %89, i32 noundef 16, ptr noundef @.str.31)
  store i32 -22, ptr %2, align 4
  store i32 1, ptr %7, align 4
  br label %127

90:                                               ; preds = %83
  br label %91

91:                                               ; preds = %90, %75, %70
  %92 = load i32, ptr %6, align 4, !tbaa !26
  %93 = icmp ne i32 %92, 0
  br i1 %93, label %94, label %104

94:                                               ; preds = %91
  %95 = load ptr, ptr %4, align 8, !tbaa !43
  %96 = getelementptr inbounds nuw %struct.StackBaseContext, ptr %95, i32 0, i32 11
  %97 = load i32, ptr %96, align 4, !tbaa !94
  %98 = load ptr, ptr %4, align 8, !tbaa !43
  %99 = getelementptr inbounds nuw %struct.StackBaseContext, ptr %98, i32 0, i32 10
  %100 = load i32, ptr %99, align 8, !tbaa !95
  %101 = mul nsw i32 %97, %100
  %102 = load ptr, ptr %4, align 8, !tbaa !43
  %103 = getelementptr inbounds nuw %struct.StackBaseContext, ptr %102, i32 0, i32 6
  store i32 %101, ptr %103, align 8, !tbaa !88
  br label %104

104:                                              ; preds = %94, %91
  %105 = load ptr, ptr %4, align 8, !tbaa !43
  %106 = getelementptr inbounds nuw %struct.StackBaseContext, ptr %105, i32 0, i32 13
  %107 = load ptr, ptr %106, align 8, !tbaa !155
  %108 = call i32 @strcmp(ptr noundef %107, ptr noundef @.str.32) #14
  %109 = icmp ne i32 %108, 0
  br i1 %109, label %110, label %123

110:                                              ; preds = %104
  %111 = load ptr, ptr %4, align 8, !tbaa !43
  %112 = getelementptr inbounds nuw %struct.StackBaseContext, ptr %111, i32 0, i32 3
  %113 = getelementptr inbounds [4 x i8], ptr %112, i64 0, i64 0
  %114 = load ptr, ptr %4, align 8, !tbaa !43
  %115 = getelementptr inbounds nuw %struct.StackBaseContext, ptr %114, i32 0, i32 13
  %116 = load ptr, ptr %115, align 8, !tbaa !155
  %117 = load ptr, ptr %3, align 8, !tbaa !4
  %118 = call i32 @av_parse_color(ptr noundef %113, ptr noundef %116, i32 noundef -1, ptr noundef %117)
  %119 = icmp sge i32 %118, 0
  br i1 %119, label %120, label %123

120:                                              ; preds = %110
  %121 = load ptr, ptr %4, align 8, !tbaa !43
  %122 = getelementptr inbounds nuw %struct.StackBaseContext, ptr %121, i32 0, i32 4
  store i32 1, ptr %122, align 8, !tbaa !156
  br label %126

123:                                              ; preds = %110, %104
  %124 = load ptr, ptr %4, align 8, !tbaa !43
  %125 = getelementptr inbounds nuw %struct.StackBaseContext, ptr %124, i32 0, i32 4
  store i32 0, ptr %125, align 8, !tbaa !156
  br label %126

126:                                              ; preds = %123, %120
  store i32 0, ptr %7, align 4
  br label %127

127:                                              ; preds = %126, %88, %68
  call void @llvm.lifetime.end.p0(i64 4, ptr %6) #11
  %128 = load i32, ptr %7, align 4
  switch i32 %128, label %177 [
    i32 0, label %129
  ]

129:                                              ; preds = %127
  br label %130

130:                                              ; preds = %129, %31
  br label %131

131:                                              ; preds = %130, %20
  call void @llvm.lifetime.start.p0(i64 4, ptr %8) #11
  store i32 0, ptr %8, align 4, !tbaa !26
  br label %132

132:                                              ; preds = %158, %131
  %133 = load i32, ptr %8, align 4, !tbaa !26
  %134 = load ptr, ptr %4, align 8, !tbaa !43
  %135 = getelementptr inbounds nuw %struct.StackBaseContext, ptr %134, i32 0, i32 6
  %136 = load i32, ptr %135, align 8, !tbaa !88
  %137 = icmp slt i32 %133, %136
  br i1 %137, label %139, label %138

138:                                              ; preds = %132
  store i32 4, ptr %7, align 4
  br label %161

139:                                              ; preds = %132
  call void @llvm.lifetime.start.p0(i64 48, ptr %9) #11
  call void @llvm.memset.p0.i64(ptr align 8 %9, i8 0, i64 48, i1 false)
  %140 = getelementptr inbounds nuw %struct.AVFilterPad, ptr %9, i32 0, i32 1
  store i32 0, ptr %140, align 8, !tbaa !157
  %141 = load i32, ptr %8, align 4, !tbaa !26
  %142 = call ptr (ptr, ...) @av_asprintf(ptr noundef @.str.33, i32 noundef %141)
  %143 = getelementptr inbounds nuw %struct.AVFilterPad, ptr %9, i32 0, i32 0
  store ptr %142, ptr %143, align 8, !tbaa !159
  %144 = getelementptr inbounds nuw %struct.AVFilterPad, ptr %9, i32 0, i32 0
  %145 = load ptr, ptr %144, align 8, !tbaa !159
  %146 = icmp ne ptr %145, null
  br i1 %146, label %148, label %147

147:                                              ; preds = %139
  store i32 -12, ptr %2, align 4
  store i32 1, ptr %7, align 4
  br label %155

148:                                              ; preds = %139
  %149 = load ptr, ptr %3, align 8, !tbaa !4
  %150 = call i32 @ff_append_inpad_free_name(ptr noundef %149, ptr noundef %9)
  store i32 %150, ptr %5, align 4, !tbaa !26
  %151 = icmp slt i32 %150, 0
  br i1 %151, label %152, label %154

152:                                              ; preds = %148
  %153 = load i32, ptr %5, align 4, !tbaa !26
  store i32 %153, ptr %2, align 4
  store i32 1, ptr %7, align 4
  br label %155

154:                                              ; preds = %148
  store i32 0, ptr %7, align 4
  br label %155

155:                                              ; preds = %154, %152, %147
  call void @llvm.lifetime.end.p0(i64 48, ptr %9) #11
  %156 = load i32, ptr %7, align 4
  switch i32 %156, label %161 [
    i32 0, label %157
  ]

157:                                              ; preds = %155
  br label %158

158:                                              ; preds = %157
  %159 = load i32, ptr %8, align 4, !tbaa !26
  %160 = add nsw i32 %159, 1
  store i32 %160, ptr %8, align 4, !tbaa !26
  br label %132, !llvm.loop !160

161:                                              ; preds = %155, %138
  call void @llvm.lifetime.end.p0(i64 4, ptr %8) #11
  %162 = load i32, ptr %7, align 4
  switch i32 %162, label %177 [
    i32 4, label %163
  ]

163:                                              ; preds = %161
  %164 = load ptr, ptr %4, align 8, !tbaa !43
  %165 = getelementptr inbounds nuw %struct.StackBaseContext, ptr %164, i32 0, i32 6
  %166 = load i32, ptr %165, align 8, !tbaa !88
  %167 = sext i32 %166 to i64
  %168 = call noalias ptr @av_calloc(i64 noundef %167, i64 noundef 16)
  %169 = load ptr, ptr %4, align 8, !tbaa !43
  %170 = getelementptr inbounds nuw %struct.StackBaseContext, ptr %169, i32 0, i32 5
  store ptr %168, ptr %170, align 8, !tbaa !89
  %171 = load ptr, ptr %4, align 8, !tbaa !43
  %172 = getelementptr inbounds nuw %struct.StackBaseContext, ptr %171, i32 0, i32 5
  %173 = load ptr, ptr %172, align 8, !tbaa !89
  %174 = icmp ne ptr %173, null
  br i1 %174, label %176, label %175

175:                                              ; preds = %163
  store i32 -12, ptr %2, align 4
  store i32 1, ptr %7, align 4
  br label %177

176:                                              ; preds = %163
  store i32 0, ptr %2, align 4
  store i32 1, ptr %7, align 4
  br label %177

177:                                              ; preds = %176, %175, %161, %127
  call void @llvm.lifetime.end.p0(i64 4, ptr %5) #11
  call void @llvm.lifetime.end.p0(i64 8, ptr %4) #11
  %178 = load i32, ptr %2, align 4
  ret i32 %178
}

; Function Attrs: nounwind uwtable
define internal i32 @vaapi_stack_init(ptr noundef %0) #0 {
  %2 = alloca i32, align 4
  %3 = alloca ptr, align 8
  %4 = alloca ptr, align 8
  %5 = alloca ptr, align 8
  %6 = alloca i32, align 4
  %7 = alloca i32, align 4
  store ptr %0, ptr %3, align 8, !tbaa !4
  call void @llvm.lifetime.start.p0(i64 8, ptr %4) #11
  %8 = load ptr, ptr %3, align 8, !tbaa !4
  %9 = getelementptr inbounds nuw %struct.AVFilterContext, ptr %8, i32 0, i32 9
  %10 = load ptr, ptr %9, align 8, !tbaa !9
  store ptr %10, ptr %4, align 8, !tbaa !22
  call void @llvm.lifetime.start.p0(i64 8, ptr %5) #11
  %11 = load ptr, ptr %3, align 8, !tbaa !4
  %12 = getelementptr inbounds nuw %struct.AVFilterContext, ptr %11, i32 0, i32 9
  %13 = load ptr, ptr %12, align 8, !tbaa !9
  store ptr %13, ptr %5, align 8, !tbaa !24
  call void @llvm.lifetime.start.p0(i64 4, ptr %6) #11
  %14 = load ptr, ptr %3, align 8, !tbaa !4
  %15 = call i32 @stack_init(ptr noundef %14)
  store i32 %15, ptr %6, align 4, !tbaa !26
  %16 = load i32, ptr %6, align 4, !tbaa !26
  %17 = icmp ne i32 %16, 0
  br i1 %17, label %18, label %20

18:                                               ; preds = %1
  %19 = load i32, ptr %6, align 4, !tbaa !26
  store i32 %19, ptr %2, align 4
  store i32 1, ptr %7, align 4
  br label %38

20:                                               ; preds = %1
  %21 = load ptr, ptr %4, align 8, !tbaa !22
  %22 = getelementptr inbounds nuw %struct.StackVAAPIContext, ptr %21, i32 0, i32 0
  %23 = getelementptr inbounds nuw %struct.StackBaseContext, ptr %22, i32 0, i32 6
  %24 = load i32, ptr %23, align 8, !tbaa !27
  %25 = sext i32 %24 to i64
  %26 = call noalias ptr @av_calloc(i64 noundef %25, i64 noundef 8)
  %27 = load ptr, ptr %4, align 8, !tbaa !22
  %28 = getelementptr inbounds nuw %struct.StackVAAPIContext, ptr %27, i32 0, i32 1
  store ptr %26, ptr %28, align 8, !tbaa !41
  %29 = load ptr, ptr %4, align 8, !tbaa !22
  %30 = getelementptr inbounds nuw %struct.StackVAAPIContext, ptr %29, i32 0, i32 1
  %31 = load ptr, ptr %30, align 8, !tbaa !41
  %32 = icmp ne ptr %31, null
  br i1 %32, label %34, label %33

33:                                               ; preds = %20
  store i32 -12, ptr %2, align 4
  store i32 1, ptr %7, align 4
  br label %38

34:                                               ; preds = %20
  %35 = load ptr, ptr %3, align 8, !tbaa !4
  call void @ff_vaapi_vpp_ctx_init(ptr noundef %35)
  %36 = load ptr, ptr %5, align 8, !tbaa !24
  %37 = getelementptr inbounds nuw %struct.VAAPIVPPContext, ptr %36, i32 0, i32 9
  store i32 -1, ptr %37, align 8, !tbaa !42
  store i32 0, ptr %2, align 4
  store i32 1, ptr %7, align 4
  br label %38

38:                                               ; preds = %34, %33, %18
  call void @llvm.lifetime.end.p0(i64 4, ptr %6) #11
  call void @llvm.lifetime.end.p0(i64 8, ptr %5) #11
  call void @llvm.lifetime.end.p0(i64 8, ptr %4) #11
  %39 = load i32, ptr %2, align 4
  ret i32 %39
}