; Function Attrs: nounwind uwtable
define internal range(i32 -2147483648, 1) i32 @vaapi_stack_init(ptr noundef %0) #0 {
  %2 = alloca %struct.AVFilterPad, align 8
  %3 = getelementptr inbounds nuw i8, ptr %0, i64 72
  %4 = load ptr, ptr %3, align 8, !tbaa !4
  %5 = getelementptr inbounds nuw i8, ptr %0, i64 8
  %6 = load ptr, ptr %5, align 8, !tbaa !20
  %7 = load ptr, ptr %6, align 8, !tbaa !21
  %8 = tail call i32 @strcmp(ptr noundef nonnull dereferenceable(1) %7, ptr noundef nonnull dereferenceable(13) @.str) #10
  %.not.i = icmp eq i32 %8, 0
  br i1 %.not.i, label %49, label %9

9:                                                ; preds = %1
  %10 = tail call i32 @strcmp(ptr noundef nonnull dereferenceable(1) %7, ptr noundef nonnull dereferenceable(13) @.str.2) #10
  %.not51.i = icmp eq i32 %10, 0
  br i1 %.not51.i, label %49, label %11

11:                                               ; preds = %9
  %12 = tail call i32 @strcmp(ptr noundef nonnull dereferenceable(1) %7, ptr noundef nonnull dereferenceable(13) @.str.4) #10
  %13 = icmp eq i32 %12, 0
  br i1 %13, label %15, label %14

14:                                               ; preds = %11
  tail call void (ptr, i32, ptr, ...) @av_log(ptr noundef null, i32 noundef 0, ptr noundef nonnull @.str.27, ptr noundef nonnull @.str.28, ptr noundef nonnull @.str.29, i32 noundef 237) #11
  tail call void @abort() #12
  unreachable

15:                                               ; preds = %11
  %16 = getelementptr inbounds nuw i8, ptr %4, i64 240
  store i32 2, ptr %16, align 8, !tbaa !23
  %17 = getelementptr inbounds nuw i8, ptr %4, i64 284
  %18 = load i32, ptr %17, align 4, !tbaa !36
  %.not52.i = icmp eq i32 %18, 0
  br i1 %.not52.i, label %.thread74.i, label %19

19:                                               ; preds = %15
  %20 = getelementptr inbounds nuw i8, ptr %4, i64 280
  %21 = load i32, ptr %20, align 8, !tbaa !37
  %22 = icmp ne i32 %21, 0
  %23 = getelementptr inbounds nuw i8, ptr %4, i64 288
  %24 = load ptr, ptr %23, align 8, !tbaa !38
  %25 = icmp ne ptr %24, null
  %or.cond.i = select i1 %25, i1 %22, i1 false
  br i1 %or.cond.i, label %26, label %27

26:                                               ; preds = %19
  tail call void (ptr, i32, ptr, ...) @av_log(ptr noundef nonnull %0, i32 noundef 16, ptr noundef nonnull @.str.30) #11
  br label %stack_init.exit.thread

27:                                               ; preds = %19
  %or.cond5.i = select i1 %25, i1 true, i1 %22
  br i1 %or.cond5.i, label %36, label %30

.thread74.i:                                      ; preds = %15
  %28 = getelementptr inbounds nuw i8, ptr %4, i64 288
  %29 = load ptr, ptr %28, align 8, !tbaa !38
  %.not81.i = icmp eq ptr %29, null
  br i1 %.not81.i, label %30, label %.thread76.i

30:                                               ; preds = %.thread74.i, %27
  %31 = getelementptr inbounds nuw i8, ptr %4, i64 264
  %32 = load i32, ptr %31, align 8, !tbaa !39
  %33 = icmp eq i32 %32, 2
  br i1 %33, label %.critedge.i, label %35

.critedge.i:                                      ; preds = %30
  store i32 1, ptr %17, align 4, !tbaa !36
  %34 = getelementptr inbounds nuw i8, ptr %4, i64 280
  store i32 2, ptr %34, align 8, !tbaa !37
  br label %38

35:                                               ; preds = %30
  tail call void (ptr, i32, ptr, ...) @av_log(ptr noundef nonnull %0, i32 noundef 16, ptr noundef nonnull @.str.31) #11
  br label %stack_init.exit.thread

36:                                               ; preds = %27
  br i1 %22, label %._crit_edge73.i, label %.thread76.i

._crit_edge73.i:                                  ; preds = %36
  %37 = mul nsw i32 %21, %18
  br label %38

38:                                               ; preds = %._crit_edge73.i, %.critedge.i
  %39 = phi i32 [ 2, %.critedge.i ], [ %37, %._crit_edge73.i ]
  %40 = getelementptr inbounds nuw i8, ptr %4, i64 264
  store i32 %39, ptr %40, align 8, !tbaa !39
  br label %.thread76.i

.thread76.i:                                      ; preds = %38, %36, %.thread74.i
  %41 = getelementptr inbounds nuw i8, ptr %4, i64 296
  %42 = load ptr, ptr %41, align 8, !tbaa !40
  %43 = tail call i32 @strcmp(ptr noundef nonnull dereferenceable(1) %42, ptr noundef nonnull dereferenceable(5) @.str.32) #10
  %.not54.i = icmp eq i32 %43, 0
  br i1 %.not54.i, label %48, label %44

44:                                               ; preds = %.thread76.i
  %45 = getelementptr inbounds nuw i8, ptr %4, i64 244
  %46 = tail call i32 @av_parse_color(ptr noundef nonnull %45, ptr noundef nonnull %42, i32 noundef -1, ptr noundef nonnull %0) #11
  %47 = icmp sgt i32 %46, -1
  br i1 %47, label %49, label %48

48:                                               ; preds = %44, %.thread76.i
  br label %49

49:                                               ; preds = %48, %44, %9, %1
  %.sink80.i = phi i64 [ 248, %48 ], [ 240, %1 ], [ 240, %9 ], [ 248, %44 ]
  %.sink.i = phi i32 [ 0, %48 ], [ 0, %1 ], [ 1, %9 ], [ 1, %44 ]
  %50 = getelementptr inbounds nuw i8, ptr %4, i64 %.sink80.i
  store i32 %.sink.i, ptr %50, align 8, !tbaa !41
  %51 = getelementptr inbounds nuw i8, ptr %4, i64 264
  %52 = load i32, ptr %51, align 8, !tbaa !39
  %.not5669.i = icmp sgt i32 %52, 0
  br i1 %.not5669.i, label %.lr.ph.i, label %._crit_edge.i

53:                                               ; preds = %57
  %54 = add nuw nsw i32 %.071.i, 1
  %55 = load i32, ptr %51, align 8, !tbaa !39
  %.not56.i = icmp slt i32 %54, %55
  br i1 %.not56.i, label %.lr.ph.i, label %._crit_edge.i, !llvm.loop !42

.lr.ph.i:                                         ; preds = %49, %53
  %.071.i = phi i32 [ %54, %53 ], [ 0, %49 ]
  call void @llvm.lifetime.start.p0(i64 48, ptr nonnull %2) #11
  call void @llvm.memset.p0.i64(ptr noundef nonnull align 8 dereferenceable(48) %2, i8 0, i64 48, i1 false)
  %56 = call ptr (ptr, ...) @av_asprintf(ptr noundef nonnull @.str.33, i32 noundef %.071.i) #11
  store ptr %56, ptr %2, align 8, !tbaa !44
  %.not55.i = icmp eq ptr %56, null
  br i1 %.not55.i, label %.thread62.i, label %57

.thread62.i:                                      ; preds = %.lr.ph.i
  call void @llvm.lifetime.end.p0(i64 48, ptr nonnull %2) #11
  br label %stack_init.exit.thread

57:                                               ; preds = %.lr.ph.i
  %58 = call i32 @ff_append_inpad_free_name(ptr noundef %0, ptr noundef nonnull %2) #11
  %59 = icmp sgt i32 %58, -1
  call void @llvm.lifetime.end.p0(i64 48, ptr nonnull %2) #11
  br i1 %59, label %53, label %stack_init.exit.thread

._crit_edge.i:                                    ; preds = %53, %49
  %60 = phi i32 [ %52, %49 ], [ %55, %53 ]
  %61 = sext i32 %60 to i64
  %62 = call noalias ptr @av_calloc(i64 noundef %61, i64 noundef 16) #11
  %63 = getelementptr inbounds nuw i8, ptr %4, i64 256
  store ptr %62, ptr %63, align 8, !tbaa !46
  %.not57.i = icmp eq ptr %62, null
  br i1 %.not57.i, label %stack_init.exit.thread, label %stack_init.exit

stack_init.exit:                                  ; preds = %._crit_edge.i
  %64 = load i32, ptr %51, align 8, !tbaa !47
  %65 = sext i32 %64 to i64
  %66 = call noalias ptr @av_calloc(i64 noundef %65, i64 noundef 8) #11
  %67 = getelementptr inbounds nuw i8, ptr %4, i64 304
  store ptr %66, ptr %67, align 8, !tbaa !50
  %.not11 = icmp eq ptr %66, null
  br i1 %.not11, label %stack_init.exit.thread, label %68

68:                                               ; preds = %stack_init.exit
  call void @ff_vaapi_vpp_ctx_init(ptr noundef %0) #11
  %69 = getelementptr inbounds nuw i8, ptr %4, i64 64
  store i32 -1, ptr %69, align 8, !tbaa !51
  br label %stack_init.exit.thread

stack_init.exit.thread:                           ; preds = %57, %._crit_edge.i, %.thread62.i, %26, %35, %stack_init.exit, %68
  %.0 = phi i32 [ 0, %68 ], [ -12, %stack_init.exit ], [ -12, %.thread62.i ], [ -22, %26 ], [ -22, %35 ], [ -12, %._crit_edge.i ], [ %58, %57 ]
  ret i32 %.0
}